target datalayout = "e-m:e-p270:32:32-p271:32:32-p272:64:64-i64:64-i128:128-f80:128-n8:16:32:64-S128"
target triple = "x86_64-pc-linux-gnu"

%struct.SDL_AtomicInt = type { i32 }
%struct.SDL_SensorDriver = type { ptr, ptr, ptr, ptr, ptr, ptr, ptr, ptr, ptr, ptr, ptr }

@SDL_sensors_initialized = internal global i8 0, align 1
@SDL_sensor_lock_pending = internal global %struct.SDL_AtomicInt zeroinitializer, align 4
@SDL_sensor_lock = internal global ptr null, align 8
@SDL_sensors_locked = internal global i32 0, align 4
@SDL_sensor_drivers = internal global [1 x ptr] [ptr @SDL_DUMMY_SensorDriver], align 8

; Function Attrs: nounwind uwtable
define hidden void @SDL_UnlockSensors() #0 {
  %1 = alloca i8, align 1
  %2 = alloca ptr, align 8
  call void @llvm.lifetime.start.p0(i64 1, ptr %1) #6
  store i8 0, ptr %1, align 1
  %3 = load i32, ptr @SDL_sensors_locked, align 4
  %4 = add nsw i32 %3, -1
  store i32 %4, ptr @SDL_sensors_locked, align 4
  %5 = load i8, ptr @SDL_sensors_initialized, align 1, !range !3, !noundef !4
  %6 = trunc i8 %5 to i1
  br i1 %6, label %15, label %7

7:                                                ; preds = %0
  %8 = load i32, ptr @SDL_sensors_locked, align 4
  %9 = icmp ne i32 %8, 0
  br i1 %9, label %14, label %10

10:                                               ; preds = %7
  %11 = call i32 @SDL_GetAtomicInt_REAL(ptr noundef @SDL_sensor_lock_pending)
  %12 = icmp eq i32 %11, 0
  br i1 %12, label %13, label %14

13:                                               ; preds = %10
  store i8 1, ptr %1, align 1
  br label %14

14:                                               ; preds = %13, %10, %7
  br label %15

15:                                               ; preds = %14, %0
  %16 = load i8, ptr %1, align 1, !range !3, !noundef !4
  %17 = trunc i8 %16 to i1
  br i1 %17, label %18, label %24

18:                                               ; preds = %15
  call void @llvm.lifetime.start.p0(i64 8, ptr %2) #6
  %19 = load ptr, ptr @SDL_sensor_lock, align 8
  store ptr %19, ptr %2, align 8
  %20 = load ptr, ptr %2, align 8
  call void @SDL_LockMutex_REAL(ptr noundef %20)
  %21 = load ptr, ptr @SDL_sensor_lock, align 8
  call void @SDL_UnlockMutex_REAL(ptr noundef %21)
  store ptr null, ptr @SDL_sensor_lock, align 8
  %22 = load ptr, ptr %2, align 8
  call void @SDL_UnlockMutex_REAL(ptr noundef %22)
  %23 = load ptr, ptr %2, align 8
  call void @SDL_DestroyMutex_REAL(ptr noundef %23)
  call void @llvm.lifetime.end.p0(i64 8, ptr %2) #6
  br label %26

24:                                               ; preds = %15
  %25 = load ptr, ptr @SDL_sensor_lock, align 8
  call void @SDL_UnlockMutex_REAL(ptr noundef %25)
  br label %26

26:                                               ; preds = %24, %18
  call void @llvm.lifetime.end.p0(i64 1, ptr %1) #6
  ret void
}

; Function Attrs: nounwind uwtable
define hidden void @SDL_LockSensors() #0 {
  %1 = call i32 @SDL_AddAtomicInt_REAL(ptr noundef @SDL_sensor_lock_pending, i32 noundef 1)
  %2 = load ptr, ptr @SDL_sensor_lock, align 8
  call void @SDL_LockMutex_REAL(ptr noundef %2)
  %3 = call i32 @SDL_AddAtomicInt_REAL(ptr noundef @SDL_sensor_lock_pending, i32 noundef -1)
  %4 = load i32, ptr @SDL_sensors_locked, align 4
  %5 = add nsw i32 %4, 1
  store i32 %5, ptr @SDL_sensors_locked, align 4
  ret void
}

; Function Attrs: nounwind uwtable
define hidden ptr @SDL_GetSensors_REAL(ptr noundef %0) #0 {
  %2 = alloca ptr, align 8
  %3 = alloca i32, align 4
  %4 = alloca i32, align 4
  %5 = alloca i32, align 4
  %6 = alloca i32, align 4
  %7 = alloca i32, align 4
  %8 = alloca ptr, align 8
  store ptr %0, ptr %2, align 8
  call void @llvm.lifetime.start.p0(i64 4, ptr %3) #6
  call void @llvm.lifetime.start.p0(i64 4, ptr %4) #6
  call void @llvm.lifetime.start.p0(i64 4, ptr %5) #6
  call void @llvm.lifetime.start.p0(i64 4, ptr %6) #6
  store i32 0, ptr %6, align 4
  call void @llvm.lifetime.start.p0(i64 4, ptr %7) #6
  store i32 0, ptr %7, align 4
  call void @llvm.lifetime.start.p0(i64 8, ptr %8) #6
  call void @SDL_LockSensors()
  store i32 0, ptr %3, align 4
  br label %9

9:                                                ; preds = %23, %1
  %10 = load i32, ptr %3, align 4
  %11 = sext i32 %10 to i64
  %12 = icmp ult i64 %11, 1
  br i1 %12, label %13, label %26

13:                                               ; preds = %9
  %14 = load i32, ptr %3, align 4
  %15 = sext i32 %14 to i64
  %16 = getelementptr inbounds [1 x ptr], ptr @SDL_sensor_drivers, i64 0, i64 %15
  %17 = load ptr, ptr %16, align 8
  %18 = getelementptr inbounds nuw %struct.SDL_SensorDriver, ptr %17, i32 0, i32 1
  %19 = load ptr, ptr %18, align 8
  %20 = call i32 %19()
  %21 = load i32, ptr %7, align 4
  %22 = add nsw i32 %21, %20
  store i32 %22, ptr %7, align 4
  br label %23

23:                                               ; preds = %13
  %24 = load i32, ptr %3, align 4
  %25 = add nsw i32 %24, 1
  store i32 %25, ptr %3, align 4
  br label %9, !llvm.loop !9

26:                                               ; preds = %9
  %27 = load i32, ptr %7, align 4
  %28 = add nsw i32 %27, 1
  %29 = sext i32 %28 to i64
  %30 = mul i64 %29, 4
  %31 = call noalias ptr @SDL_malloc_REAL(i64 noundef %30)
  store ptr %31, ptr %8, align 8
  %32 = load ptr, ptr %8, align 8
  %33 = icmp ne ptr %32, null
  br i1 %33, label %34, label %93

34:                                               ; preds = %26
  %35 = load ptr, ptr %2, align 8
  %36 = icmp ne ptr %35, null
  br i1 %36, label %37, label %40

37:                                               ; preds = %34
  %38 = load i32, ptr %7, align 4
  %39 = load ptr, ptr %2, align 8
  store i32 %38, ptr %39, align 4
  br label %40

40:                                               ; preds = %37, %34
  store i32 0, ptr %3, align 4
  br label %41

41:                                               ; preds = %82, %40
  %42 = load i32, ptr %3, align 4
  %43 = sext i32 %42 to i64
  %44 = icmp ult i64 %43, 1
  br i1 %44, label %45, label %85

45:                                               ; preds = %41
  %46 = load i32, ptr %3, align 4
  %47 = sext i32 %46 to i64
  %48 = getelementptr inbounds [1 x ptr], ptr @SDL_sensor_drivers, i64 0, i64 %47
  %49 = load ptr, ptr %48, align 8
  %50 = getelementptr inbounds nuw %struct.SDL_SensorDriver, ptr %49, i32 0, i32 1
  %51 = load ptr, ptr %50, align 8
  %52 = call i32 %51()
  store i32 %52, ptr %4, align 4
  store i32 0, ptr %5, align 4
  br label %53

53:                                               ; preds = %78, %45
  %54 = load i32, ptr %5, align 4
  %55 = load i32, ptr %4, align 4
  %56 = icmp slt i32 %54, %55
  br i1 %56, label %57, label %81

57:                                               ; preds = %53
  br label %58

58:                                               ; preds = %57
  br label %59

59:                                               ; preds = %58
  br label %60

60:                                               ; preds = %59
  %61 = load i32, ptr %3, align 4
  %62 = sext i32 %61 to i64
  %63 = getelementptr inbounds [1 x ptr], ptr @SDL_sensor_drivers, i64 0, i64 %62
  %64 = load ptr, ptr %63, align 8
  %65 = getelementptr inbounds nuw %struct.SDL_SensorDriver, ptr %64, i32 0, i32 6
  %66 = load ptr, ptr %65, align 8
  %67 = load i32, ptr %5, align 4
  %68 = call i32 %66(i32 noundef %67)
  %69 = load ptr, ptr %8, align 8
  %70 = load i32, ptr %6, align 4
  %71 = sext i32 %70 to i64
  %72 = getelementptr inbounds i32, ptr %69, i64 %71
  store i32 %68, ptr %72, align 4
  br label %73

73:                                               ; preds = %60
  br label %74

74:                                               ; preds = %73
  br label %75

75:                                               ; preds = %74
  %76 = load i32, ptr %6, align 4
  %77 = add nsw i32 %76, 1
  store i32 %77, ptr %6, align 4
  br label %78

78:                                               ; preds = %75
  %79 = load i32, ptr %5, align 4
  %80 = add nsw i32 %79, 1
  store i32 %80, ptr %5, align 4
  br label %53, !llvm.loop !10

81:                                               ; preds = %53
  br label %82

82:                                               ; preds = %81
  %83 = load i32, ptr %3, align 4
  %84 = add nsw i32 %83, 1
  store i32 %84, ptr %3, align 4
  br label %41, !llvm.loop !11

85:                                               ; preds = %41
  br label %86

86:                                               ; preds = %85
  br label %87

87:                                               ; preds = %86
  br label %88

88:                                               ; preds = %87
  %89 = load ptr, ptr %8, align 8
  %90 = load i32, ptr %6, align 4
  %91 = sext i32 %90 to i64
  %92 = getelementptr inbounds i32, ptr %89, i64 %91
  store i32 0, ptr %92, align 4
  br label %99

93:                                               ; preds = %26
  %94 = load ptr, ptr %2, align 8
  %95 = icmp ne ptr %94, null
  br i1 %95, label %96, label %98

96:                                               ; preds = %93
  %97 = load ptr, ptr %2, align 8
  store i32 0, ptr %97, align 4
  br label %98

98:                                               ; preds = %96, %93
  br label %99

99:                                               ; preds = %98, %88
  call void @SDL_UnlockSensors()
  %100 = load ptr, ptr %8, align 8
  call void @llvm.lifetime.end.p0(i64 8, ptr %8) #6
  call void @llvm.lifetime.end.p0(i64 4, ptr %7) #6
  call void @llvm.lifetime.end.p0(i64 4, ptr %6) #6
  call void @llvm.lifetime.end.p0(i64 4, ptr %5) #6
  call void @llvm.lifetime.end.p0(i64 4, ptr %4) #6
  call void @llvm.lifetime.end.p0(i64 4, ptr %3) #6
  ret ptr %100
}