; Function Attrs: nounwind uwtable
define hidden ptr @SDL_GetSensors_REAL(ptr noundef writeonly captures(address_is_null) %0) local_unnamed_addr #1 {
  %2 = tail call i32 @SDL_AddAtomicInt_REAL(ptr noundef nonnull @SDL_sensor_lock_pending, i32 noundef 1) #9
  %3 = load ptr, ptr @SDL_sensor_lock, align 8
  tail call void @SDL_LockMutex_REAL(ptr noundef %3) #9
  %4 = tail call i32 @SDL_AddAtomicInt_REAL(ptr noundef nonnull @SDL_sensor_lock_pending, i32 noundef -1) #9
  %5 = load i32, ptr @SDL_sensors_locked, align 4
  %6 = add nsw i32 %5, 1
  store i32 %6, ptr @SDL_sensors_locked, align 4
  %7 = load ptr, ptr getelementptr inbounds nuw (i8, ptr @SDL_DUMMY_SensorDriver, i64 8), align 8
  %8 = tail call i32 %7() #9
  %9 = add nsw i32 %8, 1
  %10 = sext i32 %9 to i64
  %11 = shl nsw i64 %10, 2
  %12 = tail call noalias ptr @SDL_malloc_REAL(i64 noundef %11) #9
  %.not = icmp eq ptr %12, null
  %.not33 = icmp eq ptr %0, null
  br i1 %.not, label %24, label %13

13:                                               ; preds = %1
  br i1 %.not33, label %17, label %14

14:                                               ; preds = %13
  store i32 %8, ptr %0, align 4
  br label %17

.loopexit.loopexit:                               ; preds = %.lr.ph
  %15 = zext nneg i32 %19 to i64
  br label %.loopexit

.loopexit:                                        ; preds = %.loopexit.loopexit, %17
  %.126.lcssa = phi i64 [ 0, %17 ], [ %15, %.loopexit.loopexit ]
  %16 = getelementptr inbounds nuw i32, ptr %12, i64 %.126.lcssa
  store i32 0, ptr %16, align 4
  br label %26

17:                                               ; preds = %13, %14
  %18 = load ptr, ptr getelementptr inbounds nuw (i8, ptr @SDL_DUMMY_SensorDriver, i64 8), align 8
  %19 = tail call i32 %18() #9
  %20 = icmp sgt i32 %19, 0
  br i1 %20, label %.lr.ph.preheader, label %.loopexit

.lr.ph.preheader:                                 ; preds = %17
  %wide.trip.count = zext nneg i32 %19 to i64
  br label %.lr.ph

.lr.ph:                                           ; preds = %.lr.ph.preheader, %.lr.ph
  %indvars.iv = phi i64 [ 0, %.lr.ph.preheader ], [ %indvars.iv.next, %.lr.ph ]
  %indvars41 = trunc i64 %indvars.iv to i32
  %21 = load ptr, ptr getelementptr inbounds nuw (i8, ptr @SDL_DUMMY_SensorDriver, i64 48), align 8
  %22 = tail call i32 %21(i32 noundef %indvars41) #9
  %23 = getelementptr inbounds nuw i32, ptr %12, i64 %indvars.iv
  store i32 %22, ptr %23, align 4
  %indvars.iv.next = add nuw nsw i64 %indvars.iv, 1
  %exitcond.not = icmp eq i64 %indvars.iv.next, %wide.trip.count
  br i1 %exitcond.not, label %.loopexit.loopexit, label %.lr.ph, !llvm.loop !5

24:                                               ; preds = %1
  br i1 %.not33, label %26, label %25

25:                                               ; preds = %24
  store i32 0, ptr %0, align 4
  br label %26

26:                                               ; preds = %24, %25, %.loopexit
  %27 = load i32, ptr @SDL_sensors_locked, align 4
  %28 = add nsw i32 %27, -1
  store i32 %28, ptr @SDL_sensors_locked, align 4
  %.b4.i = load i1, ptr @SDL_sensors_initialized, align 1
  %29 = icmp ne i32 %28, 0
  %or.cond.i = select i1 %.b4.i, i1 true, i1 %29
  br i1 %or.cond.i, label %.critedge.i, label %30

30:                                               ; preds = %26
  %31 = tail call i32 @SDL_GetAtomicInt_REAL(ptr noundef nonnull @SDL_sensor_lock_pending) #9
  %32 = icmp eq i32 %31, 0
  br i1 %32, label %33, label %.critedge.i

33:                                               ; preds = %30
  %34 = load ptr, ptr @SDL_sensor_lock, align 8
  tail call void @SDL_LockMutex_REAL(ptr noundef %34) #9
  %35 = load ptr, ptr @SDL_sensor_lock, align 8
  tail call void @SDL_UnlockMutex_REAL(ptr noundef %35) #9
  store ptr null, ptr @SDL_sensor_lock, align 8
  tail call void @SDL_UnlockMutex_REAL(ptr noundef %34) #9
  tail call void @SDL_DestroyMutex_REAL(ptr noundef %34) #9
  br label %SDL_UnlockSensors.exit

.critedge.i:                                      ; preds = %30, %26
  %36 = load ptr, ptr @SDL_sensor_lock, align 8
  tail call void @SDL_UnlockMutex_REAL(ptr noundef %36) #9
  br label %SDL_UnlockSensors.exit

SDL_UnlockSensors.exit:                           ; preds = %33, %.critedge.i
  ret ptr %12
}